target datalayout = "e-m:e-p270:32:32-p271:32:32-p272:64:64-i64:64-i128:128-f80:128-n8:16:32:64-S128"
target triple = "x86_64-unknown-linux-gnu"

%"class.icu_75::ICULanguageBreakFactory" = type { %"class.icu_75::LanguageBreakFactory", ptr }
%"class.icu_75::LanguageBreakFactory" = type { ptr }

; Function Attrs: mustprogress nounwind uwtable
define void @_ZN6icu_7520LanguageBreakFactoryD2Ev(ptr noundef nonnull align 8 dereferenceable(8) %this) unnamed_addr #0 align 2 {
entry:
  %this.addr = alloca ptr, align 8
  store ptr %this, ptr %this.addr, align 8
  ret void
}

; Function Attrs: mustprogress nounwind uwtable
define void @_ZN6icu_7523ICULanguageBreakFactoryD2Ev(ptr noundef nonnull align 8 dereferenceable(16) %this) unnamed_addr #0 align 2 {
entry:
  %this.addr = alloca ptr, align 8
  store ptr %this, ptr %this.addr, align 8
  %this1 = load ptr, ptr %this.addr, align 8
  store ptr getelementptr inbounds ({ [8 x ptr] }, ptr @_ZTVN6icu_7523ICULanguageBreakFactoryE, i32 0, i32 0, i32 2), ptr %this1, align 8
  %fEngines = getelementptr inbounds %"class.icu_75::ICULanguageBreakFactory", ptr %this1, i32 0, i32 1
  %0 = load ptr, ptr %fEngines, align 8
  %cmp = icmp ne ptr %0, null
  br i1 %cmp, label %if.then, label %if.end

if.then:                                          ; preds = %entry
  %fEngines2 = getelementptr inbounds %"class.icu_75::ICULanguageBreakFactory", ptr %this1, i32 0, i32 1
  %1 = load ptr, ptr %fEngines2, align 8
  %isnull = icmp eq ptr %1, null
  br i1 %isnull, label %delete.end, label %delete.notnull

delete.notnull:                                   ; preds = %if.then
  %vtable = load ptr, ptr %1, align 8
  %vfn = getelementptr inbounds ptr, ptr %vtable, i64 1
  %2 = load ptr, ptr %vfn, align 8
  call void %2(ptr noundef nonnull align 8 dereferenceable(40) %1) #8
  br label %delete.end

delete.end:                                       ; preds = %delete.notnull, %if.then
  br label %if.end

if.end:                                           ; preds = %delete.end, %entry
  call void @_ZN6icu_7520LanguageBreakFactoryD2Ev(ptr noundef nonnull align 8 dereferenceable(8) %this1) #8
  ret void
}